target datalayout = "e-m:e-p270:32:32-p271:32:32-p272:64:64-i64:64-i128:128-f80:128-n8:16:32:64-S128"
target triple = "x86_64-pc-linux-gnu"

%struct.Map_TimeStruct_t_ = type { float, float, float }
%struct.Map_CutStruct_t_ = type { ptr, ptr, ptr, [6 x ptr], i32, i8, i8, i8, i8, [2 x %struct.Map_MatchStruct_t_] }
%struct.Map_MatchStruct_t_ = type { ptr, i32, i32, ptr, %struct.Map_TimeStruct_t_, float }

; Function Attrs: nounwind uwtable
define i32 @Map_CutSortCutsCompare(ptr noundef %0, ptr noundef %1) #0 {
  %3 = alloca i32, align 4
  %4 = alloca ptr, align 8
  %5 = alloca ptr, align 8
  store ptr %0, ptr %4, align 8, !tbaa !82
  store ptr %1, ptr %5, align 8, !tbaa !82
  %6 = load ptr, ptr %4, align 8, !tbaa !82
  %7 = load ptr, ptr %6, align 8, !tbaa !30
  %8 = getelementptr inbounds nuw %struct.Map_CutStruct_t_, ptr %7, i32 0, i32 5
  %9 = load i8, ptr %8, align 4, !tbaa !31
  %10 = sext i8 %9 to i32
  %11 = load ptr, ptr %5, align 8, !tbaa !82
  %12 = load ptr, ptr %11, align 8, !tbaa !30
  %13 = getelementptr inbounds nuw %struct.Map_CutStruct_t_, ptr %12, i32 0, i32 5
  %14 = load i8, ptr %13, align 4, !tbaa !31
  %15 = sext i8 %14 to i32
  %16 = icmp slt i32 %10, %15
  br i1 %16, label %17, label %18

17:                                               ; preds = %2
  store i32 -1, ptr %3, align 4
  br label %32

18:                                               ; preds = %2
  %19 = load ptr, ptr %4, align 8, !tbaa !82
  %20 = load ptr, ptr %19, align 8, !tbaa !30
  %21 = getelementptr inbounds nuw %struct.Map_CutStruct_t_, ptr %20, i32 0, i32 5
  %22 = load i8, ptr %21, align 4, !tbaa !31
  %23 = sext i8 %22 to i32
  %24 = load ptr, ptr %5, align 8, !tbaa !82
  %25 = load ptr, ptr %24, align 8, !tbaa !30
  %26 = getelementptr inbounds nuw %struct.Map_CutStruct_t_, ptr %25, i32 0, i32 5
  %27 = load i8, ptr %26, align 4, !tbaa !31
  %28 = sext i8 %27 to i32
  %29 = icmp sgt i32 %23, %28
  br i1 %29, label %30, label %31

30:                                               ; preds = %18
  store i32 1, ptr %3, align 4
  br label %32

31:                                               ; preds = %18
  store i32 0, ptr %3, align 4
  br label %32

32:                                               ; preds = %31, %30, %17
  %33 = load i32, ptr %3, align 4
  ret i32 %33
}