; Function Attrs: mustprogress nofree norecurse nosync nounwind willreturn memory(read, inaccessiblemem: none) uwtable
define range(i32 -1, 2) i32 @Map_CutSortCutsCompare(ptr noundef readonly captures(none) %0, ptr noundef readonly captures(none) %1) #8 {
  %3 = load ptr, ptr %0, align 8, !tbaa !24
  %4 = getelementptr inbounds nuw i8, ptr %3, i64 76
  %5 = load i8, ptr %4, align 4, !tbaa !26
  %6 = load ptr, ptr %1, align 8, !tbaa !24
  %7 = getelementptr inbounds nuw i8, ptr %6, i64 76
  %8 = load i8, ptr %7, align 4, !tbaa !26
  %.0 = tail call i32 @llvm.scmp.i32.i8(i8 %5, i8 %8)
  ret i32 %.0
}